(lp0
V\u043e\u0441\u043b
p1
aV\u0432\u0440\u0443\u0447\u0435\u043d
p2
aV\u0438\u0433\u043d\u043e\u0440\u0438\u0440
p3
aV\u0446\u0435\u0440\u0435\u043c\u043e\u043d
p4
aVwikileaks
p5
aV\u0430\u0440\u0435\u0441\u0442\u043e\u0432\u0430
p6
aV\u0441\u043e\u0441\u0442\u043e
p7
aV\u043f\u043b\u0430\u043d
p8
aV\u043d\u043e\u0431\u0435\u043b\u0435\u0432\u0441\u043a
p9
aV\u0440\u0430\u0437\u0440\u0430\u0431\u043e\u0442\u0430
p10
aV\u043e\u0441\u043d\u043e\u0432\u0430\u0442\u0435\u043b
p11
aV\u0431\u0430\u043b\u0442
p12
aV\u043f\u0440\u043e\u0446\u0435\u0441\u0441
p13
aV\u0441\u043f\u0430\u043c
p14
aV\u0431\u0440\u0438\u0442\u0430\u043d\u0441\u043a
p15
aV\u0431\u043e\u0439\u043a\u043e\u0442\u0438\u0440
p16
aV\u0440\u043e\u0441\u0441
p17
aV\u0432\u0435\u043b\u0438\u043a\u043e\u0431\u0440\u0438\u0442\u0430\u043d
p18
aV\u0440\u0430\u0441\u0441\u043c\u0430\u0442\u0440\u0438\u0432\u0430
p19
aV\u0440\u0430\u0441\u0441\u044b\u043b\u0430
p20
aV\u0441\u0442\u043e\u043a\u0433\u043e\u043b\u044c\u043c
p21
aV\u0448\u0432\u0435\u0434\u0441\u043a
p22
aV\u043f\u043e\u043b\u0438\u0446
p23
aV\u0437\u043d\u0430\u0435\u0442
p24
aV\u0441\u0442\u0440\u0430\u043d
p25
aV\u043d\u0430\u0442
p26
aV\u043c\u0435\u0441\u0442\u043e\u043d\u0430\u0445\u043e\u0436\u0434\u0435\u043d
p27
aV\u0430\u043f\u0435\u043b\u043b\u044f\u0446
p28
aV\u043f\u0440\u043e\u0442
p29
aV\u0441\u0430\u0439\u0442
p30
aV\u0441\u0448\u0430
p31
aV\u043e\u0442\u043a\u0430\u0437\u0430
p32
aV\u043d\u0430\u0447\u0438\u043d\u0430
p33
aV\u0441\u0443\u0434
p34
aV\u0430\u0441\u0441\u0430\u043d\u0434\u0436
p35
aV\u043f\u0440\u0435\u043c
p36
a.